target datalayout = "e-m:e-p270:32:32-p271:32:32-p272:64:64-i64:64-i128:128-f80:128-n8:16:32:64-S128"
target triple = "x86_64-pc-linux-gnu"

%struct.timeval = type { i64, i64 }
%struct.pmix_data_buffer = type { ptr, ptr, ptr, i64, i64 }
%struct.pmix_list_t = type { %struct.pmix_object_t, %struct.pmix_list_item_t, i64 }
%struct.pmix_object_t = type { %union.pthread_mutex_t, ptr, i32, %struct.pmix_tma }
%union.pthread_mutex_t = type { %struct.__pthread_mutex_s }
%struct.__pthread_mutex_s = type { i32, i32, i32, i32, i32, i16, i16, %struct.__pthread_internal_list }
%struct.__pthread_internal_list = type { ptr, ptr }
%struct.pmix_tma = type { ptr, ptr, ptr, ptr, ptr, ptr, ptr, ptr }
%struct.pmix_list_item_t = type { %struct.pmix_object_t, ptr, ptr, i32 }
%struct.pmix_mca_base_framework_t = type { ptr, ptr, ptr, ptr, ptr, ptr, i32, i32, ptr, ptr, i32, i32, %struct.pmix_list_t, %struct.pmix_list_t }
%struct.prte_process_info_t = type { %struct.pmix_proc, %struct.pmix_proc, ptr, %struct.pmix_proc, i32, i32, i32, ptr, ptr, i32, i8, ptr, i16, ptr, ptr, i8, ptr, i8 }
%struct.pmix_proc = type { [256 x i8], i32 }
%struct.prte_state_base_module_1_0_0_t = type { ptr, ptr, ptr, ptr, ptr, ptr, ptr, ptr, ptr, ptr }
%struct.pmix_output_desc_t = type { i8, i8, i32, i8, i32, ptr, ptr, i32, ptr, i32, i8, i8, i8, i8, ptr, i32, i32 }
%struct.prte_job_t = type { %struct.pmix_list_item_t, i32, ptr, ptr, [256 x i8], ptr, i32, i32, ptr, ptr, i32, i32, i32, i32, ptr, ptr, ptr, i32, i32, i32, i32, i32, i32, i32, %struct.pmix_proc, i32, i16, %struct.pmix_list_t, %struct.pmix_data_buffer, %struct.pmix_list_t, [256 x i8], i32, ptr, %struct.pmix_cli_result_t }
%struct.pmix_cli_result_t = type { %struct.pmix_object_t, %struct.pmix_list_t, ptr }

@prte_process_info = external global %struct.prte_process_info_t, align 8
@.str.7 = private unnamed_addr constant [22 x i8] c"base/plm_base_frame.c\00", align 1
@prte_state = external global %struct.prte_state_base_module_1_0_0_t, align 8
@prte_state_base_framework = external global %struct.pmix_mca_base_framework_t, align 8
@pmix_output_info = external global [0 x %struct.pmix_output_desc_t], align 8
@.str.8 = private unnamed_addr constant [42 x i8] c"%s [%f] ACTIVATE JOB %s STATE %s AT %s:%d\00", align 1
@.str.9 = private unnamed_addr constant [5 x i8] c"NULL\00", align 1

; Function Attrs: nounwind uwtable
define internal i32 @local_spawn(ptr noundef %0) #0 {
  %2 = alloca ptr, align 8
  %3 = alloca ptr, align 8
  %4 = alloca double, align 8
  %5 = alloca %struct.timeval, align 8
  %6 = alloca ptr, align 8
  %7 = alloca double, align 8
  %8 = alloca %struct.timeval, align 8
  store ptr %0, ptr %2, align 8, !tbaa !24
  %9 = load ptr, ptr %2, align 8, !tbaa !24
  %10 = getelementptr inbounds nuw %struct.prte_job_t, ptr %9, i32 0, i32 26
  %11 = load i16, ptr %10, align 4, !tbaa !25
  %12 = zext i16 %11 to i32
  %13 = and i32 %12, 512
  %14 = icmp ne i32 %13, 0
  br i1 %14, label %15, label %66

15:                                               ; preds = %1
  br label %16

16:                                               ; preds = %15
  call void @llvm.lifetime.start.p0(i64 8, ptr %3) #10
  %17 = load ptr, ptr %2, align 8, !tbaa !24
  store ptr %17, ptr %3, align 8, !tbaa !24
  %18 = load i32, ptr getelementptr inbounds nuw (%struct.pmix_mca_base_framework_t, ptr @prte_state_base_framework, i32 0, i32 10), align 8, !tbaa !33
  %19 = icmp sgt i32 %18, 0
  br i1 %19, label %20, label %62

20:                                               ; preds = %16
  call void @llvm.lifetime.start.p0(i64 8, ptr %4) #10
  store double 0.000000e+00, ptr %4, align 8, !tbaa !36
  br label %21

21:                                               ; preds = %20
  call void @llvm.lifetime.start.p0(i64 16, ptr %5) #10
  %22 = call i32 @gettimeofday(ptr noundef %5, ptr noundef null) #10
  %23 = getelementptr inbounds nuw %struct.timeval, ptr %5, i32 0, i32 0
  %24 = load i64, ptr %23, align 8, !tbaa !38
  %25 = sitofp i64 %24 to double
  store double %25, ptr %4, align 8, !tbaa !36
  %26 = getelementptr inbounds nuw %struct.timeval, ptr %5, i32 0, i32 1
  %27 = load i64, ptr %26, align 8, !tbaa !39
  %28 = sitofp i64 %27 to double
  %29 = fdiv double %28, 1.000000e+06
  %30 = load double, ptr %4, align 8, !tbaa !36
  %31 = fadd double %30, %29
  store double %31, ptr %4, align 8, !tbaa !36
  call void @llvm.lifetime.end.p0(i64 16, ptr %5) #10
  br label %32

32:                                               ; preds = %21
  br label %33

33:                                               ; preds = %32
  %34 = load i32, ptr getelementptr inbounds nuw (%struct.pmix_mca_base_framework_t, ptr @prte_state_base_framework, i32 0, i32 11), align 4, !tbaa !40
  %35 = icmp sge i32 %34, 0
  br i1 %35, label %36, label %61

36:                                               ; preds = %33
  %37 = load i32, ptr getelementptr inbounds nuw (%struct.pmix_mca_base_framework_t, ptr @prte_state_base_framework, i32 0, i32 11), align 4, !tbaa !40
  %38 = icmp slt i32 %37, 64
  br i1 %38, label %39, label %61

39:                                               ; preds = %36
  %40 = load i32, ptr getelementptr inbounds nuw (%struct.pmix_mca_base_framework_t, ptr @prte_state_base_framework, i32 0, i32 11), align 4, !tbaa !40
  %41 = sext i32 %40 to i64
  %42 = getelementptr inbounds [0 x %struct.pmix_output_desc_t], ptr @pmix_output_info, i64 0, i64 %41
  %43 = getelementptr inbounds nuw %struct.pmix_output_desc_t, ptr %42, i32 0, i32 2
  %44 = load i32, ptr %43, align 4, !tbaa !41
  %45 = icmp sge i32 %44, 1
  br i1 %45, label %46, label %61

46:                                               ; preds = %39
  %47 = load i32, ptr getelementptr inbounds nuw (%struct.pmix_mca_base_framework_t, ptr @prte_state_base_framework, i32 0, i32 11), align 4, !tbaa !40
  %48 = call ptr @prte_util_print_name_args(ptr noundef @prte_process_info)
  %49 = load double, ptr %4, align 8, !tbaa !36
  %50 = load ptr, ptr %3, align 8, !tbaa !24
  %51 = icmp eq ptr null, %50
  br i1 %51, label %52, label %53

52:                                               ; preds = %46
  br label %58

53:                                               ; preds = %46
  %54 = load ptr, ptr %3, align 8, !tbaa !24
  %55 = getelementptr inbounds nuw %struct.prte_job_t, ptr %54, i32 0, i32 4
  %56 = getelementptr inbounds [256 x i8], ptr %55, i64 0, i64 0
  %57 = call ptr @prte_util_print_jobids(ptr noundef %56)
  br label %58

58:                                               ; preds = %53, %52
  %59 = phi ptr [ @.str.9, %52 ], [ %57, %53 ]
  %60 = call ptr @prte_job_state_to_str(i32 noundef 5)
  call void (i32, ptr, ...) @pmix_output(i32 noundef %47, ptr noundef @.str.8, ptr noundef %48, double noundef %49, ptr noundef %59, ptr noundef %60, ptr noundef @.str.7, i32 noundef 196)
  br label %61

61:                                               ; preds = %58, %39, %36, %33
  call void @llvm.lifetime.end.p0(i64 8, ptr %4) #10
  br label %62

62:                                               ; preds = %61, %16
  %63 = load ptr, ptr getelementptr inbounds nuw (%struct.prte_state_base_module_1_0_0_t, ptr @prte_state, i32 0, i32 2), align 8, !tbaa !43
  %64 = load ptr, ptr %3, align 8, !tbaa !24
  call void %63(ptr noundef %64, i32 noundef 5)
  call void @llvm.lifetime.end.p0(i64 8, ptr %3) #10
  br label %65

65:                                               ; preds = %62
  br label %117

66:                                               ; preds = %1
  br label %67

67:                                               ; preds = %66
  call void @llvm.lifetime.start.p0(i64 8, ptr %6) #10
  %68 = load ptr, ptr %2, align 8, !tbaa !24
  store ptr %68, ptr %6, align 8, !tbaa !24
  %69 = load i32, ptr getelementptr inbounds nuw (%struct.pmix_mca_base_framework_t, ptr @prte_state_base_framework, i32 0, i32 10), align 8, !tbaa !33
  %70 = icmp sgt i32 %69, 0
  br i1 %70, label %71, label %113

71:                                               ; preds = %67
  call void @llvm.lifetime.start.p0(i64 8, ptr %7) #10
  store double 0.000000e+00, ptr %7, align 8, !tbaa !36
  br label %72

72:                                               ; preds = %71
  call void @llvm.lifetime.start.p0(i64 16, ptr %8) #10
  %73 = call i32 @gettimeofday(ptr noundef %8, ptr noundef null) #10
  %74 = getelementptr inbounds nuw %struct.timeval, ptr %8, i32 0, i32 0
  %75 = load i64, ptr %74, align 8, !tbaa !38
  %76 = sitofp i64 %75 to double
  store double %76, ptr %7, align 8, !tbaa !36
  %77 = getelementptr inbounds nuw %struct.timeval, ptr %8, i32 0, i32 1
  %78 = load i64, ptr %77, align 8, !tbaa !39
  %79 = sitofp i64 %78 to double
  %80 = fdiv double %79, 1.000000e+06
  %81 = load double, ptr %7, align 8, !tbaa !36
  %82 = fadd double %81, %80
  store double %82, ptr %7, align 8, !tbaa !36
  call void @llvm.lifetime.end.p0(i64 16, ptr %8) #10
  br label %83

83:                                               ; preds = %72
  br label %84

84:                                               ; preds = %83
  %85 = load i32, ptr getelementptr inbounds nuw (%struct.pmix_mca_base_framework_t, ptr @prte_state_base_framework, i32 0, i32 11), align 4, !tbaa !40
  %86 = icmp sge i32 %85, 0
  br i1 %86, label %87, label %112

87:                                               ; preds = %84
  %88 = load i32, ptr getelementptr inbounds nuw (%struct.pmix_mca_base_framework_t, ptr @prte_state_base_framework, i32 0, i32 11), align 4, !tbaa !40
  %89 = icmp slt i32 %88, 64
  br i1 %89, label %90, label %112

90:                                               ; preds = %87
  %91 = load i32, ptr getelementptr inbounds nuw (%struct.pmix_mca_base_framework_t, ptr @prte_state_base_framework, i32 0, i32 11), align 4, !tbaa !40
  %92 = sext i32 %91 to i64
  %93 = getelementptr inbounds [0 x %struct.pmix_output_desc_t], ptr @pmix_output_info, i64 0, i64 %92
  %94 = getelementptr inbounds nuw %struct.pmix_output_desc_t, ptr %93, i32 0, i32 2
  %95 = load i32, ptr %94, align 4, !tbaa !41
  %96 = icmp sge i32 %95, 1
  br i1 %96, label %97, label %112

97:                                               ; preds = %90
  %98 = load i32, ptr getelementptr inbounds nuw (%struct.pmix_mca_base_framework_t, ptr @prte_state_base_framework, i32 0, i32 11), align 4, !tbaa !40
  %99 = call ptr @prte_util_print_name_args(ptr noundef @prte_process_info)
  %100 = load double, ptr %7, align 8, !tbaa !36
  %101 = load ptr, ptr %6, align 8, !tbaa !24
  %102 = icmp eq ptr null, %101
  br i1 %102, label %103, label %104

103:                                              ; preds = %97
  br label %109

104:                                              ; preds = %97
  %105 = load ptr, ptr %6, align 8, !tbaa !24
  %106 = getelementptr inbounds nuw %struct.prte_job_t, ptr %105, i32 0, i32 4
  %107 = getelementptr inbounds [256 x i8], ptr %106, i64 0, i64 0
  %108 = call ptr @prte_util_print_jobids(ptr noundef %107)
  br label %109

109:                                              ; preds = %104, %103
  %110 = phi ptr [ @.str.9, %103 ], [ %108, %104 ]
  %111 = call ptr @prte_job_state_to_str(i32 noundef 1)
  call void (i32, ptr, ...) @pmix_output(i32 noundef %98, ptr noundef @.str.8, ptr noundef %99, double noundef %100, ptr noundef %110, ptr noundef %111, ptr noundef @.str.7, i32 noundef 199)
  br label %112

112:                                              ; preds = %109, %90, %87, %84
  call void @llvm.lifetime.end.p0(i64 8, ptr %7) #10
  br label %113

113:                                              ; preds = %112, %67
  %114 = load ptr, ptr getelementptr inbounds nuw (%struct.prte_state_base_module_1_0_0_t, ptr @prte_state, i32 0, i32 2), align 8, !tbaa !43
  %115 = load ptr, ptr %6, align 8, !tbaa !24
  call void %114(ptr noundef %115, i32 noundef 1)
  call void @llvm.lifetime.end.p0(i64 8, ptr %6) #10
  br label %116

116:                                              ; preds = %113
  br label %117

117:                                              ; preds = %116, %65
  ret i32 0
}