; Function Attrs: nounwind uwtable
define internal noundef i32 @local_spawn(ptr noundef %0) #0 {
  %2 = alloca %struct.timeval, align 8
  %3 = alloca %struct.timeval, align 8
  %4 = getelementptr inbounds nuw i8, ptr %0, i64 788
  %5 = load i16, ptr %4, align 4, !tbaa !23
  %6 = and i16 %5, 512
  %.not = icmp eq i16 %6, 0
  %7 = load i32, ptr getelementptr inbounds nuw (i8, ptr @prte_state_base_framework, i64 72), align 8, !tbaa !31
  %8 = icmp sgt i32 %7, 0
  br i1 %.not, label %30, label %9

9:                                                ; preds = %1
  br i1 %8, label %10, label %51

10:                                               ; preds = %9
  call void @llvm.lifetime.start.p0(i64 16, ptr nonnull %2) #10
  %11 = call i32 @gettimeofday(ptr noundef nonnull %2, ptr noundef null) #10
  %12 = load i64, ptr %2, align 8, !tbaa !34
  %13 = sitofp i64 %12 to double
  %14 = getelementptr inbounds nuw i8, ptr %2, i64 8
  %15 = load i64, ptr %14, align 8, !tbaa !35
  %16 = sitofp i64 %15 to double
  %17 = fdiv double %16, 1.000000e+06
  %18 = fadd double %17, %13
  call void @llvm.lifetime.end.p0(i64 16, ptr nonnull %2) #10
  %19 = load i32, ptr getelementptr inbounds nuw (i8, ptr @prte_state_base_framework, i64 76), align 4, !tbaa !36
  %or.cond = icmp ult i32 %19, 64
  br i1 %or.cond, label %20, label %51

20:                                               ; preds = %10
  %21 = zext nneg i32 %19 to i64
  %22 = getelementptr inbounds nuw [0 x %struct.pmix_output_desc_t], ptr @pmix_output_info, i64 0, i64 %21, i32 2
  %23 = load i32, ptr %22, align 4, !tbaa !37
  %24 = icmp sgt i32 %23, 0
  br i1 %24, label %25, label %51

25:                                               ; preds = %20
  %26 = tail call ptr @prte_util_print_name_args(ptr noundef nonnull @prte_process_info) #10
  %27 = getelementptr inbounds nuw i8, ptr %0, i64 168
  %28 = tail call ptr @prte_util_print_jobids(ptr noundef nonnull %27) #10
  %29 = tail call ptr @prte_job_state_to_str(i32 noundef 5) #10
  tail call void (i32, ptr, ...) @pmix_output(i32 noundef %19, ptr noundef nonnull @.str.8, ptr noundef %26, double noundef %18, ptr noundef %28, ptr noundef %29, ptr noundef nonnull @.str.7, i32 noundef 196) #10
  br label %51

30:                                               ; preds = %1
  br i1 %8, label %31, label %51

31:                                               ; preds = %30
  call void @llvm.lifetime.start.p0(i64 16, ptr nonnull %3) #10
  %32 = call i32 @gettimeofday(ptr noundef nonnull %3, ptr noundef null) #10
  %33 = load i64, ptr %3, align 8, !tbaa !34
  %34 = sitofp i64 %33 to double
  %35 = getelementptr inbounds nuw i8, ptr %3, i64 8
  %36 = load i64, ptr %35, align 8, !tbaa !35
  %37 = sitofp i64 %36 to double
  %38 = fdiv double %37, 1.000000e+06
  %39 = fadd double %38, %34
  call void @llvm.lifetime.end.p0(i64 16, ptr nonnull %3) #10
  %40 = load i32, ptr getelementptr inbounds nuw (i8, ptr @prte_state_base_framework, i64 76), align 4, !tbaa !36
  %or.cond3 = icmp ult i32 %40, 64
  br i1 %or.cond3, label %41, label %51

41:                                               ; preds = %31
  %42 = zext nneg i32 %40 to i64
  %43 = getelementptr inbounds nuw [0 x %struct.pmix_output_desc_t], ptr @pmix_output_info, i64 0, i64 %42, i32 2
  %44 = load i32, ptr %43, align 4, !tbaa !37
  %45 = icmp sgt i32 %44, 0
  br i1 %45, label %46, label %51

46:                                               ; preds = %41
  %47 = tail call ptr @prte_util_print_name_args(ptr noundef nonnull @prte_process_info) #10
  %48 = getelementptr inbounds nuw i8, ptr %0, i64 168
  %49 = tail call ptr @prte_util_print_jobids(ptr noundef nonnull %48) #10
  %50 = tail call ptr @prte_job_state_to_str(i32 noundef 1) #10
  tail call void (i32, ptr, ...) @pmix_output(i32 noundef %40, ptr noundef nonnull @.str.8, ptr noundef %47, double noundef %39, ptr noundef %49, ptr noundef %50, ptr noundef nonnull @.str.7, i32 noundef 199) #10
  br label %51

51:                                               ; preds = %30, %46, %41, %31, %9, %25, %20, %10
  %.sink = phi i32 [ 5, %10 ], [ 5, %20 ], [ 5, %25 ], [ 5, %9 ], [ 1, %31 ], [ 1, %41 ], [ 1, %46 ], [ 1, %30 ]
  %52 = load ptr, ptr getelementptr inbounds nuw (i8, ptr @prte_state, i64 16), align 8, !tbaa !39
  tail call void %52(ptr noundef nonnull %0, i32 noundef %.sink) #10
  ret i32 0
}